target datalayout = "e-m:e-p270:32:32-p271:32:32-p272:64:64-i64:64-i128:128-f80:128-n8:16:32:64-S128"
target triple = "x86_64-unknown-linux-gnu"

; Function Attrs: mustprogress nounwind uwtable
define linkonce_odr noundef i64 @_ZNSt14numeric_limitsImE3maxEv() #1 comdat align 2 {
entry:
  ret i64 -1
}

; Function Attrs: mustprogress nounwind uwtable
define noundef i64 @_ZN7rocksdb21MultiplyCheckOverflowEmd(i64 noundef %op1, double noundef %op2) #1 {
entry:
  %retval = alloca i64, align 8
  %op1.addr = alloca i64, align 8
  %op2.addr = alloca double, align 8
  store i64 %op1, ptr %op1.addr, align 8
  store double %op2, ptr %op2.addr, align 8
  %0 = load i64, ptr %op1.addr, align 8
  %cmp = icmp eq i64 %0, 0
  br i1 %cmp, label %if.then, label %lor.lhs.false

lor.lhs.false:                                    ; preds = %entry
  %1 = load double, ptr %op2.addr, align 8
  %cmp1 = fcmp ole double %1, 0.000000e+00
  br i1 %cmp1, label %if.then, label %if.end

if.then:                                          ; preds = %lor.lhs.false, %entry
  store i64 0, ptr %retval, align 8
  br label %return

if.end:                                           ; preds = %lor.lhs.false
  %call = call noundef i64 @_ZNSt14numeric_limitsImE3maxEv() #4
  %2 = load i64, ptr %op1.addr, align 8
  %div = udiv i64 %call, %2
  %conv = uitofp i64 %div to double
  %3 = load double, ptr %op2.addr, align 8
  %cmp2 = fcmp olt double %conv, %3
  br i1 %cmp2, label %if.then3, label %if.end4

if.then3:                                         ; preds = %if.end
  %4 = load i64, ptr %op1.addr, align 8
  store i64 %4, ptr %retval, align 8
  br label %return

if.end4:                                          ; preds = %if.end
  %5 = load i64, ptr %op1.addr, align 8
  %conv5 = uitofp i64 %5 to double
  %6 = load double, ptr %op2.addr, align 8
  %mul = fmul double %conv5, %6
  %conv6 = fptoui double %mul to i64
  store i64 %conv6, ptr %retval, align 8
  br label %return

return:                                           ; preds = %if.end4, %if.then3, %if.then
  %7 = load i64, ptr %retval, align 8
  ret i64 %7
}