; Function Attrs: mustprogress nofree norecurse nosync nounwind willreturn memory(none) uwtable
define noundef i64 @_ZN7rocksdb21MultiplyCheckOverflowEmd(i64 noundef %op1, double noundef %op2) local_unnamed_addr #10 {
entry:
  %cmp = icmp eq i64 %op1, 0
  %cmp1 = fcmp ole double %op2, 0.000000e+00
  %or.cond = or i1 %cmp, %cmp1
  br i1 %or.cond, label %return, label %if.end

if.end:                                           ; preds = %entry
  %div = udiv i64 -1, %op1
  %conv = uitofp i64 %div to double
  %cmp2 = fcmp olt double %conv, %op2
  br i1 %cmp2, label %return, label %if.end4

if.end4:                                          ; preds = %if.end
  %conv5 = uitofp i64 %op1 to double
  %mul = fmul double %conv5, %op2
  %conv6 = fptoui double %mul to i64
  br label %return

return:                                           ; preds = %if.end, %entry, %if.end4
  %retval.0 = phi i64 [ %conv6, %if.end4 ], [ 0, %entry ], [ %op1, %if.end ]
  ret i64 %retval.0
}